; Function Attrs: mustprogress nofree norecurse nosync nounwind willreturn memory(read, inaccessiblemem: none) uwtable
define dso_local range(i64 0, 8589934592) i64 @_ZN5clang20DeductionFailureInfo15getCallArgIndexEv(ptr nocapture noundef nonnull readonly align 8 dereferenceable(48) %0) local_unnamed_addr #3 align 2 {
  %2 = load i16, ptr %0, align 8
  %3 = and i16 %2, 254
  %switch = icmp eq i16 %3, 8
  br i1 %switch, label %4, label %11

4:                                                ; preds = %1
  %5 = getelementptr inbounds nuw i8, ptr %0, i64 8
  %6 = load ptr, ptr %5, align 8
  %7 = getelementptr inbounds nuw i8, ptr %6, i64 56
  %8 = load i32, ptr %7, align 4
  %9 = zext i32 %8 to i64
  %10 = or disjoint i64 %9, 4294967296
  br label %11

11:                                               ; preds = %1, %4
  %.sroa.0.0.insert.insert = phi i64 [ %10, %4 ], [ 0, %1 ]
  ret i64 %.sroa.0.0.insert.insert
}